ARM GAS  C:\Users\divya\AppData\Local\Temp\ccF88moI.s 			page 1


   1              		.syntax unified
   2              		.cpu cortex-m3
   3              		.fpu softvfp
   4              		.eabi_attribute 20, 1
   5              		.eabi_attribute 21, 1
   6              		.eabi_attribute 23, 3
   7              		.eabi_attribute 24, 1
   8              		.eabi_attribute 25, 1
   9              		.eabi_attribute 26, 1
  10              		.eabi_attribute 30, 1
  11              		.eabi_attribute 34, 1
  12              		.eabi_attribute 18, 4
  13              		.thumb
  14              		.syntax unified
  15              		.file	"Glower.c"
  16              		.text
  17              	.Ltext0:
  18              		.cfi_sections	.debug_frame
  19              		.section	.text.RGB_GLOW_t,"ax",%progbits
  20              		.align	2
  21              		.global	RGB_GLOW_t
  22              		.thumb
  23              		.thumb_func
  24              		.type	RGB_GLOW_t, %function
  25              	RGB_GLOW_t:
  26              	.LFB110:
  27              		.file 1 "source\\asw\\Glower.c"
   1:source\asw/Glower.c **** /**
   2:source\asw/Glower.c **** * \file <filename>
   3:source\asw/Glower.c **** * \author <author-name>
   4:source\asw/Glower.c **** * \date <date>
   5:source\asw/Glower.c **** *
   6:source\asw/Glower.c **** * \brief <Symbolic File name>
   7:source\asw/Glower.c **** *
   8:source\asw/Glower.c **** * \copyright Copyright ©2016
   9:source\asw/Glower.c **** * Department of electrical engineering and information technology, Hochschule Darmstadt - Universit
  10:source\asw/Glower.c **** * Permission to use, copy, modify, and distribute this software and its documentation for education
  11:source\asw/Glower.c **** * (unless permitted by h_da) and official h_da projects, is hereby granted for enrolled students of
  12:source\asw/Glower.c **** * this paragraph and the following paragraph appear in all copies, modifications, and distributions
  13:source\asw/Glower.c **** * Contact Prof.Dr.-Ing. Peter Fromm, peter.fromm@h-da.de, Birkenweg 8 64295 Darmstadt - GERMANY for
  14:source\asw/Glower.c **** *
  15:source\asw/Glower.c **** * \warning This software is a PROTOTYPE version and is not designed or intended for use in producti
  16:source\asw/Glower.c **** * The user represents and warrants that it will NOT use or redistribute the Software for such purpo
  17:source\asw/Glower.c **** * This prototype is for research purposes only. This software is provided "AS IS," without a warran
  18:source\asw/Glower.c **** */
  19:source\asw/Glower.c **** 
  20:source\asw/Glower.c **** /*****************************************************************************/
  21:source\asw/Glower.c **** /* Include files                                                             */
  22:source\asw/Glower.c **** /*****************************************************************************/
  23:source\asw/Glower.c **** 
  24:source\asw/Glower.c **** #include "Glower.h"
  25:source\asw/Glower.c **** #include "project.h"
  26:source\asw/Glower.c **** #include "led.h"
  27:source\asw/Glower.c **** 
  28:source\asw/Glower.c **** /*****************************************************************************/
  29:source\asw/Glower.c **** /* Local pre-processor symbols/macros ('#define')                            */
  30:source\asw/Glower.c **** /*****************************************************************************/
ARM GAS  C:\Users\divya\AppData\Local\Temp\ccF88moI.s 			page 2


  31:source\asw/Glower.c **** 
  32:source\asw/Glower.c **** /*****************************************************************************/
  33:source\asw/Glower.c **** /* Global variable definitions (declared in header file with 'extern')       */
  34:source\asw/Glower.c **** /*****************************************************************************/
  35:source\asw/Glower.c **** //Red Green Blue TimeInMS 
  36:source\asw/Glower.c **** 
  37:source\asw/Glower.c **** const Glower_t RG_glowtable_1[] = {
  38:source\asw/Glower.c ****     {255, 0,   0,   500},  // 500ms red
  39:source\asw/Glower.c ****     {0,   255, 0,   500},  // 500ms green
  40:source\asw/Glower.c ****     {0,   0,   255, 500},  // 500ms blue
  41:source\asw/Glower.c ****     {0,   0,   0,   100},  // 100ms off
  42:source\asw/Glower.c ****     {255, 255, 255, 100},  // 100ms white
  43:source\asw/Glower.c ****     {0,   0,   0,   100},  // 100ms off
  44:source\asw/Glower.c ****     {255, 255, 255, 100},  // 100ms white
  45:source\asw/Glower.c ****     {255, 0,   255, 100}   // 100ms magenta
  46:source\asw/Glower.c **** };
  47:source\asw/Glower.c **** /*****************************************************************************/
  48:source\asw/Glower.c **** /* Local type definitions ('typedef')                                        */
  49:source\asw/Glower.c **** /*****************************************************************************/
  50:source\asw/Glower.c **** 
  51:source\asw/Glower.c **** /*****************************************************************************/
  52:source\asw/Glower.c **** /* Local variable definitions ('static')                                     */
  53:source\asw/Glower.c **** /*****************************************************************************/
  54:source\asw/Glower.c **** 
  55:source\asw/Glower.c **** 
  56:source\asw/Glower.c **** 
  57:source\asw/Glower.c **** /*****************************************************************************/
  58:source\asw/Glower.c **** /* Local function prototypes ('static')                                      */
  59:source\asw/Glower.c **** /*****************************************************************************/
  60:source\asw/Glower.c **** 
  61:source\asw/Glower.c **** 
  62:source\asw/Glower.c **** /*****************************************************************************/
  63:source\asw/Glower.c **** /* Function implementation - global ('extern') and local ('static')          */
  64:source\asw/Glower.c **** /*****************************************************************************/
  65:source\asw/Glower.c **** /**
  66:source\asw/Glower.c **** RC_t RG_GLOW_t()
  67:source\asw/Glower.c **** {
  68:source\asw/Glower.c ****    uint8_t index=0;
  69:source\asw/Glower.c ****     while(1)
  70:source\asw/Glower.c ****     {
  71:source\asw/Glower.c ****         Pin_RGB_RED_Write(RG_glowtable_1[index].red);
  72:source\asw/Glower.c ****         Pin_RGB_GREEN_Write(RG_glowtable_1[index].green);
  73:source\asw/Glower.c ****         Pin_RGB_BLUE_Write(RG_glowtable_1[index].blue);
  74:source\asw/Glower.c ****         CyDelay(RG_glowtable_1[index].TimeInMS);
  75:source\asw/Glower.c ****         
  76:source\asw/Glower.c ****         index++;
  77:source\asw/Glower.c ****         if(index>sizeof(RG_glowtable_1)/sizeof(Glower_t))
  78:source\asw/Glower.c ****         index = 0;
  79:source\asw/Glower.c ****     }
  80:source\asw/Glower.c ****     return RC_SUCCESS;
  81:source\asw/Glower.c ****         
  82:source\asw/Glower.c **** }
  83:source\asw/Glower.c **** **/
  84:source\asw/Glower.c **** /**
  85:source\asw/Glower.c ****  * <RGB_Glower is the function which defines the colour of RGB LED with pre defined values declared
  86:source\asw/Glower.c ****  * \return <return RC_SUCCESS after successful execution of the program>
  87:source\asw/Glower.c ****  */
ARM GAS  C:\Users\divya\AppData\Local\Temp\ccF88moI.s 			page 3


  88:source\asw/Glower.c **** //RC_t FILE_function(type para)
  89:source\asw/Glower.c **** RC_t RGB_GLOW_t()
  90:source\asw/Glower.c **** {
  28              		.loc 1 90 0
  29              		.cfi_startproc
  30              		@ args = 0, pretend = 0, frame = 0
  31              		@ frame_needed = 0, uses_anonymous_args = 0
  32 0000 38B5     		push	{r3, r4, r5, lr}
  33              		.cfi_def_cfa_offset 16
  34              		.cfi_offset 3, -16
  35              		.cfi_offset 4, -12
  36              		.cfi_offset 5, -8
  37              		.cfi_offset 14, -4
  91:source\asw/Glower.c ****   static uint8_t index=0;
  92:source\asw/Glower.c ****     //while(1)
  93:source\asw/Glower.c ****     {
  94:source\asw/Glower.c ****         Pin_RGB_RED_Write(RG_glowtable_1[index].red);
  38              		.loc 1 94 0
  39 0002 164D     		ldr	r5, .L4
  40 0004 164C     		ldr	r4, .L4+4
  41 0006 2378     		ldrb	r3, [r4]	@ zero_extendqisi2
  42 0008 03EB4303 		add	r3, r3, r3, lsl #1
  43 000c 5A00     		lsls	r2, r3, #1
  44 000e A85C     		ldrb	r0, [r5, r2]	@ zero_extendqisi2
  45 0010 FFF7FEFF 		bl	Pin_RGB_RED_Write
  46              	.LVL0:
  95:source\asw/Glower.c ****         Pin_RGB_GREEN_Write(RG_glowtable_1[index].green);
  47              		.loc 1 95 0
  48 0014 2378     		ldrb	r3, [r4]	@ zero_extendqisi2
  49 0016 03EB4303 		add	r3, r3, r3, lsl #1
  50 001a 5A00     		lsls	r2, r3, #1
  51 001c 2A44     		add	r2, r2, r5
  52 001e 5078     		ldrb	r0, [r2, #1]	@ zero_extendqisi2
  53 0020 FFF7FEFF 		bl	Pin_RGB_GREEN_Write
  54              	.LVL1:
  96:source\asw/Glower.c ****         Pin_RGB_BLUE_Write(RG_glowtable_1[index].blue);
  55              		.loc 1 96 0
  56 0024 2378     		ldrb	r3, [r4]	@ zero_extendqisi2
  57 0026 03EB4303 		add	r3, r3, r3, lsl #1
  58 002a 5A00     		lsls	r2, r3, #1
  59 002c 2A44     		add	r2, r2, r5
  60 002e 9078     		ldrb	r0, [r2, #2]	@ zero_extendqisi2
  61 0030 FFF7FEFF 		bl	Pin_RGB_BLUE_Write
  62              	.LVL2:
  97:source\asw/Glower.c ****         //CyDelay(RG_glowtable_1[index].TimeInMS);
  98:source\asw/Glower.c ****         SetRelAlarm(alarm_glower,RG_glowtable_1[index].TimeInMS,0);
  63              		.loc 1 98 0
  64 0034 2378     		ldrb	r3, [r4]	@ zero_extendqisi2
  65 0036 03EB4303 		add	r3, r3, r3, lsl #1
  66 003a 5A00     		lsls	r2, r3, #1
  67 003c 1544     		add	r5, r5, r2
  68 003e 0022     		movs	r2, #0
  69 0040 A988     		ldrh	r1, [r5, #4]
  70 0042 0420     		movs	r0, #4
  71 0044 FFF7FEFF 		bl	EE_oo_SetRelAlarm
  72              	.LVL3:
  99:source\asw/Glower.c ****         
ARM GAS  C:\Users\divya\AppData\Local\Temp\ccF88moI.s 			page 4


 100:source\asw/Glower.c ****         index++;
  73              		.loc 1 100 0
  74 0048 2378     		ldrb	r3, [r4]	@ zero_extendqisi2
  75 004a 0133     		adds	r3, r3, #1
  76 004c DBB2     		uxtb	r3, r3
  77 004e 2370     		strb	r3, [r4]
 101:source\asw/Glower.c ****         if(index>=8)
  78              		.loc 1 101 0
  79 0050 072B     		cmp	r3, #7
  80 0052 01D9     		bls	.L2
 102:source\asw/Glower.c ****         index = 0;
  81              		.loc 1 102 0
  82 0054 0022     		movs	r2, #0
  83 0056 2270     		strb	r2, [r4]
  84              	.L2:
 103:source\asw/Glower.c ****     }
 104:source\asw/Glower.c ****     return RC_SUCCESS;
 105:source\asw/Glower.c ****         
 106:source\asw/Glower.c **** }
  85              		.loc 1 106 0
  86 0058 0020     		movs	r0, #0
  87 005a 38BD     		pop	{r3, r4, r5, pc}
  88              	.L5:
  89              		.align	2
  90              	.L4:
  91 005c 00000000 		.word	.LANCHOR0
  92 0060 00000000 		.word	.LANCHOR1
  93              		.cfi_endproc
  94              	.LFE110:
  95              		.size	RGB_GLOW_t, .-RGB_GLOW_t
  96              		.global	RG_glowtable_1
  97              		.section	.rodata
  98              		.align	2
  99              		.set	.LANCHOR0,. + 0
 100              		.type	RG_glowtable_1, %object
 101              		.size	RG_glowtable_1, 48
 102              	RG_glowtable_1:
 103 0000 FF       		.byte	-1
 104 0001 00       		.byte	0
 105 0002 00       		.byte	0
 106 0003 00       		.space	1
 107 0004 F401     		.short	500
 108 0006 00       		.byte	0
 109 0007 FF       		.byte	-1
 110 0008 00       		.byte	0
 111 0009 00       		.space	1
 112 000a F401     		.short	500
 113 000c 00       		.byte	0
 114 000d 00       		.byte	0
 115 000e FF       		.byte	-1
 116 000f 00       		.space	1
 117 0010 F401     		.short	500
 118 0012 00       		.byte	0
 119 0013 00       		.byte	0
 120 0014 00       		.byte	0
 121 0015 00       		.space	1
 122 0016 6400     		.short	100
ARM GAS  C:\Users\divya\AppData\Local\Temp\ccF88moI.s 			page 5


 123 0018 FF       		.byte	-1
 124 0019 FF       		.byte	-1
 125 001a FF       		.byte	-1
 126 001b 00       		.space	1
 127 001c 6400     		.short	100
 128 001e 00       		.byte	0
 129 001f 00       		.byte	0
 130 0020 00       		.byte	0
 131 0021 00       		.space	1
 132 0022 6400     		.short	100
 133 0024 FF       		.byte	-1
 134 0025 FF       		.byte	-1
 135 0026 FF       		.byte	-1
 136 0027 00       		.space	1
 137 0028 6400     		.short	100
 138 002a FF       		.byte	-1
 139 002b 00       		.byte	0
 140 002c FF       		.byte	-1
 141 002d 00       		.space	1
 142 002e 6400     		.short	100
 143              		.bss
 144              		.set	.LANCHOR1,. + 0
 145              		.type	index.6529, %object
 146              		.size	index.6529, 1
 147              	index.6529:
 148 0000 00       		.space	1
 149              		.text
 150              	.Letext0:
 151              		.file 2 "c:\\program files (x86)\\cypress\\psoc creator\\4.4\\psoc creator\\import\\gnu\\arm\\5.4.
 152              		.file 3 "c:\\program files (x86)\\cypress\\psoc creator\\4.4\\psoc creator\\import\\gnu\\arm\\5.4.
 153              		.file 4 "Generated_Source\\PSoC5/ErikaOS_1_common_ee_types.inc"
 154              		.file 5 "Generated_Source\\PSoC5/ErikaOS_1_cortex_mx_ee_cpu.inc"
 155              		.file 6 ".\\source\\bsw/global.h"
 156              		.file 7 ".\\source\\bsw/led.h"
 157              		.file 8 "source\\asw\\Glower.h"
 158              		.file 9 "Generated_Source\\PSoC5/ErikaOS_1_ee_oo_intfunc.inc"
 159              		.file 10 "Generated_Source\\PSoC5/ErikaOS_1_cortex_mx_ee_context.inc"
 160              		.file 11 "Generated_Source\\PSoC5/ErikaOS_1_common_ee_primitives.inc"
 161              		.file 12 "Generated_Source\\PSoC5/core_cm3.h"
 162              		.file 13 "Generated_Source\\PSoC5/Pin_RGB_RED.h"
 163              		.file 14 "Generated_Source\\PSoC5/Pin_RGB_GREEN.h"
 164              		.file 15 "Generated_Source\\PSoC5/Pin_RGB_BLUE.h"
 165              		.file 16 "Generated_Source\\PSoC5/ErikaOS_1_ee_oo_kernel.inc"