ARM GAS  C:\Users\divya\AppData\Local\Temp\ccCyNhhq.s 			page 1


   1              		.syntax unified
   2              		.cpu cortex-m3
   3              		.fpu softvfp
   4              		.eabi_attribute 20, 1
   5              		.eabi_attribute 21, 1
   6              		.eabi_attribute 23, 3
   7              		.eabi_attribute 24, 1
   8              		.eabi_attribute 25, 1
   9              		.eabi_attribute 26, 1
  10              		.eabi_attribute 30, 1
  11              		.eabi_attribute 34, 1
  12              		.eabi_attribute 18, 4
  13              		.thumb
  14              		.syntax unified
  15              		.file	"led.c"
  16              		.text
  17              	.Ltext0:
  18              		.cfi_sections	.debug_frame
  19              		.section	.text.LED_Init,"ax",%progbits
  20              		.align	2
  21              		.global	LED_Init
  22              		.thumb
  23              		.thumb_func
  24              		.type	LED_Init, %function
  25              	LED_Init:
  26              	.LFB110:
  27              		.file 1 "source\\bsw\\led.c"
   1:source\bsw/led.c **** /**
   2:source\bsw/led.c **** * \file <filename>
   3:source\bsw/led.c **** * \author <author-name>
   4:source\bsw/led.c **** * \date <date>
   5:source\bsw/led.c **** *
   6:source\bsw/led.c **** * \brief <Symbolic File name>
   7:source\bsw/led.c **** *
   8:source\bsw/led.c **** * \copyright Copyright ©2016
   9:source\bsw/led.c **** * Department of electrical engineering and information technology, Hochschule Darmstadt - Universit
  10:source\bsw/led.c **** * Permission to use, copy, modify, and distribute this software and its documentation for education
  11:source\bsw/led.c **** * (unless permitted by h_da) and official h_da projects, is hereby granted for enrolled students of
  12:source\bsw/led.c **** * this paragraph and the following paragraph appear in all copies, modifications, and distributions
  13:source\bsw/led.c **** * Contact Prof.Dr.-Ing. Peter Fromm, peter.fromm@h-da.de, Birkenweg 8 64295 Darmstadt - GERMANY for
  14:source\bsw/led.c **** *
  15:source\bsw/led.c **** * \warning This software is a PROTOTYPE version and is not designed or intended for use in producti
  16:source\bsw/led.c **** * The user represents and warrants that it will NOT use or redistribute the Software for such purpo
  17:source\bsw/led.c **** * This prototype is for research purposes only. This software is provided "AS IS," without a warran
  18:source\bsw/led.c **** */
  19:source\bsw/led.c **** 
  20:source\bsw/led.c **** /*****************************************************************************/
  21:source\bsw/led.c **** /* Include files                                                             */
  22:source\bsw/led.c **** /*****************************************************************************/
  23:source\bsw/led.c **** 
  24:source\bsw/led.c **** #include "project.h"
  25:source\bsw/led.c **** #include "led.h"
  26:source\bsw/led.c **** typedef enum {
  27:source\bsw/led.c ****     LED_FADER_STATE_RED,
  28:source\bsw/led.c ****     LED_FADER_STATE_YELLOW,
  29:source\bsw/led.c ****     LED_FADER_STATE_GREEN,
  30:source\bsw/led.c ****     LED_FADER_STATE_DONE
ARM GAS  C:\Users\divya\AppData\Local\Temp\ccCyNhhq.s 			page 2


  31:source\bsw/led.c **** } LED_FADER_State_t;
  32:source\bsw/led.c **** 
  33:source\bsw/led.c **** /*****************************************************************************/
  34:source\bsw/led.c **** /* Local pre-processor symbols/macros ('#define')                            */
  35:source\bsw/led.c **** /*****************************************************************************/
  36:source\bsw/led.c **** 
  37:source\bsw/led.c **** /*****************************************************************************/
  38:source\bsw/led.c **** /* Global variable definitions (declared in header file with 'extern')       */
  39:source\bsw/led.c **** /*****************************************************************************/
  40:source\bsw/led.c **** static LED_FADER_State_t faderState = LED_FADER_STATE_RED;
  41:source\bsw/led.c **** static uint8_t redBrightness = 0;
  42:source\bsw/led.c **** static uint8_t yellowBrightness = 0;
  43:source\bsw/led.c **** static uint8_t greenBrightness = 0;
  44:source\bsw/led.c **** /*****************************************************************************/
  45:source\bsw/led.c **** /* Local type definitions ('typedef')                                        */
  46:source\bsw/led.c **** /*****************************************************************************/
  47:source\bsw/led.c **** 
  48:source\bsw/led.c **** 
  49:source\bsw/led.c **** 
  50:source\bsw/led.c **** /*****************************************************************************/
  51:source\bsw/led.c **** /* Local variable definitions ('static')                                     */
  52:source\bsw/led.c **** /*****************************************************************************/
  53:source\bsw/led.c **** 
  54:source\bsw/led.c **** 
  55:source\bsw/led.c **** /*
  56:source\bsw/led.c **** const static uint16 LED__Pulse_Width[256] = {
  57:source\bsw/led.c ****     0, 1, 1, 1, 1, 1, 1, 1, 1, 2, 2, 2, 2, 2, 2, 2, 2, 2, 2, 2, 2, 3,
  58:source\bsw/led.c ****     3, 3, 3, 3, 3, 3, 4, 4, 4, 4, 4, 4, 5, 5, 5, 5, 5, 6, 6, 6, 6, 7,
  59:source\bsw/led.c ****     7, 7, 8, 8, 8, 9, 9, 10, 10, 10, 11, 11, 12, 12, 13, 13, 14, 15,
  60:source\bsw/led.c ****     15, 16, 17, 17, 18, 19, 20, 21, 22, 23, 24, 25, 26, 27, 28, 29,
  61:source\bsw/led.c ****     31, 32, 33, 35, 36, 38, 40, 41, 43, 45, 47, 49, 52, 54, 56, 59,
  62:source\bsw/led.c ****     61, 64, 67, 70, 73, 76, 79, 83, 87, 91, 95, 99, 103, 108, 112,
  63:source\bsw/led.c ****     117, 123, 128, 134, 140, 146, 152, 159, 166, 173, 181, 189, 197,
  64:source\bsw/led.c ****     206, 215, 225, 235, 245, 256, 267, 279, 292, 304, 318, 332, 347,
  65:source\bsw/led.c ****     362, 378, 395, 412, 431, 450, 470, 490, 512, 535, 558, 583, 609,
  66:source\bsw/led.c ****     636, 664, 693, 724, 756, 790, 825, 861, 899, 939, 981, 1024, 1069,
  67:source\bsw/led.c ****     1117, 1166, 1218, 1272, 1328, 1387, 1448, 1512, 1579, 1649, 1722,
  68:source\bsw/led.c ****     1798, 1878, 1961, 2048, 2139, 2233, 2332, 2435, 2543, 2656, 2773,
  69:source\bsw/led.c ****     2896, 3025, 3158, 3298, 3444, 3597, 3756, 3922, 4096, 4277, 4467,
  70:source\bsw/led.c ****     4664, 4871, 5087, 5312, 5547, 5793, 6049, 6317, 6596, 6889, 7194,
  71:source\bsw/led.c ****     7512, 7845, 8192, 8555, 8933, 9329, 9742, 10173, 10624, 11094,
  72:source\bsw/led.c ****     11585, 12098, 12634, 13193, 13777, 14387, 15024, 15689, 16384,
  73:source\bsw/led.c ****     17109, 17867, 18658, 19484, 20346, 21247, 22188, 23170, 24196,
  74:source\bsw/led.c ****     25267, 26386, 27554, 28774, 30048, 31378, 32768, 34218, 35733,
  75:source\bsw/led.c ****     37315, 38967, 40693, 42494, 44376, 46340, 48392, 50534, 52772,
  76:source\bsw/led.c ****     55108, 57548, 60096, 62757, 65535
  77:source\bsw/led.c **** };*/
  78:source\bsw/led.c **** 
  79:source\bsw/led.c **** ///*****************************************************************************/
  80:source\bsw/led.c **** ///* Local function prototypes ('static')                                      */
  81:source\bsw/led.c **** ///*****************************************************************************/
  82:source\bsw/led.c **** //
  83:source\bsw/led.c **** ///**
  84:source\bsw/led.c **** // * Inverts the parameter
  85:source\bsw/led.c **** // * @param LED_ONOFF_t ledOnOff - Value to be inverted
  86:source\bsw/led.c **** // * @return inverted parameter
  87:source\bsw/led.c **** // */
ARM GAS  C:\Users\divya\AppData\Local\Temp\ccCyNhhq.s 			page 3


  88:source\bsw/led.c **** //static inline LED_ONOFF_t LED__toggleValue(LED_ONOFF_t ledOnOff);
  89:source\bsw/led.c **** //
  90:source\bsw/led.c **** //
  91:source\bsw/led.c **** ///*****************************************************************************/
  92:source\bsw/led.c **** ///* Function implementation - global ('extern') and local ('static')          */
  93:source\bsw/led.c **** ///*****************************************************************************/
  94:source\bsw/led.c **** //
  95:source\bsw/led.c **** ///**
  96:source\bsw/led.c **** // * Initialises the LED's and turns them off
  97:source\bsw/led.c **** // * @return RC_SUCCESS if function was executed as exepected, other error code in case of error
  98:source\bsw/led.c **** // */
  99:source\bsw/led.c **** //RC_t LED_Init()
 100:source\bsw/led.c **** //{
 101:source\bsw/led.c **** //    RC_t result = RC_SUCCESS;
 102:source\bsw/led.c **** //    
 103:source\bsw/led.c **** //    for (LED_id_t i = LED_RED; i < LED_ALL; i++)
 104:source\bsw/led.c **** //    {
 105:source\bsw/led.c **** //        LED__state[i] = OFF;
 106:source\bsw/led.c **** //        
 107:source\bsw/led.c **** //        RC_t clearResult;
 108:source\bsw/led.c **** //        clearResult = LED_Set(i, LED_OFF);
 109:source\bsw/led.c **** //        
 110:source\bsw/led.c **** //        if (clearResult != RC_SUCCESS)
 111:source\bsw/led.c **** //        {
 112:source\bsw/led.c **** //            //memorize error
 113:source\bsw/led.c **** //            result = clearResult;
 114:source\bsw/led.c **** //        }
 115:source\bsw/led.c **** //    }
 116:source\bsw/led.c **** //    
 117:source\bsw/led.c **** //    //Init RGB
 118:source\bsw/led.c **** //    PWM_led_yellow_Start();
 119:source\bsw/led.c **** //    PWM_led_green_Start();
 120:source\bsw/led.c **** //    PWM_led_red_Start();
 121:source\bsw/led.c **** //    
 122:source\bsw/led.c **** //    return result;
 123:source\bsw/led.c **** //}
 124:source\bsw/led.c **** //
 125:source\bsw/led.c **** ///**
 126:source\bsw/led.c **** // * Sets the required LED
 127:source\bsw/led.c **** // * @param LED_t ledId - Identifier for the LED, ALL will change all LED's
 128:source\bsw/led.c **** // * @param LED_ONOFF_t ledOnOff - Trun the led on or off
 129:source\bsw/led.c **** // * @return RC_SUCCESS if function was executed as exepected, other error code in case of error
 130:source\bsw/led.c **** // */
 131:source\bsw/led.c **** //RC_t LED_Set(LED_id_t ledId, LED_ONOFF_t ledOnOff)
 132:source\bsw/led.c **** //{
 133:source\bsw/led.c **** //    //set individual LED
 134:source\bsw/led.c **** //    switch (ledId)
 135:source\bsw/led.c **** //    {
 136:source\bsw/led.c **** //        case LED_RED : 
 137:source\bsw/led.c **** //            LED_red_Write(ledOnOff); 
 138:source\bsw/led.c **** //            LED__state[ledId] = ledOnOff; 
 139:source\bsw/led.c **** //            break;
 140:source\bsw/led.c **** //        
 141:source\bsw/led.c **** //        case LED_YELLOW : 
 142:source\bsw/led.c **** //            LED_yellow_Write(ledOnOff); 
 143:source\bsw/led.c **** //            LED__state[ledId] = ledOnOff;
 144:source\bsw/led.c **** //            break;
ARM GAS  C:\Users\divya\AppData\Local\Temp\ccCyNhhq.s 			page 4


 145:source\bsw/led.c **** //            
 146:source\bsw/led.c **** //        case LED_GREEN : 
 147:source\bsw/led.c **** //            LED_green_Write(ledOnOff); 
 148:source\bsw/led.c **** //            LED__state[ledId] = ledOnOff;
 149:source\bsw/led.c **** //            break;
 150:source\bsw/led.c **** //           
 151:source\bsw/led.c **** //        case LED_ALL : 
 152:source\bsw/led.c **** //            for (LED_id_t i = LED_RED; i < LED_ALL; i++)
 153:source\bsw/led.c **** //            {
 154:source\bsw/led.c **** //                LED_Set(i, ledOnOff);
 155:source\bsw/led.c **** //            }
 156:source\bsw/led.c **** //            break;
 157:source\bsw/led.c **** //        default: return RC_ERROR_BAD_PARAM;
 158:source\bsw/led.c **** //    }
 159:source\bsw/led.c **** //    
 160:source\bsw/led.c **** //    return RC_SUCCESS;
 161:source\bsw/led.c **** //}
 162:source\bsw/led.c **** //
 163:source\bsw/led.c **** //
 164:source\bsw/led.c **** //
 165:source\bsw/led.c **** ///**
 166:source\bsw/led.c **** // * Toggle the required LED
 167:source\bsw/led.c **** // * @param LED_t ledId - Identifier for the LED, ALL will change all LED's
 168:source\bsw/led.c **** // * @return RC_SUCCESS if function was executed as exepected, other error code in case of error
 169:source\bsw/led.c **** // */
 170:source\bsw/led.c **** //RC_t LED_Toggle(LED_id_t ledId)
 171:source\bsw/led.c **** //{
 172:source\bsw/led.c **** //    //set individual LED
 173:source\bsw/led.c **** //    switch (ledId)
 174:source\bsw/led.c **** //    {
 175:source\bsw/led.c **** //        case LED_RED : 
 176:source\bsw/led.c **** //            LED__state[ledId] = LED__toggleValue(LED__state[ledId]); 
 177:source\bsw/led.c **** //            LED_red_Write(LED__state[ledId]);
 178:source\bsw/led.c **** //            break;
 179:source\bsw/led.c **** //        
 180:source\bsw/led.c **** //        case LED_YELLOW : 
 181:source\bsw/led.c **** //            LED__state[ledId] = LED__toggleValue(LED__state[ledId]); 
 182:source\bsw/led.c **** //            LED_yellow_Write(LED__state[ledId]);
 183:source\bsw/led.c **** //            break;
 184:source\bsw/led.c **** //            
 185:source\bsw/led.c **** //        case LED_GREEN : 
 186:source\bsw/led.c **** //            LED__state[ledId] = LED__toggleValue(LED__state[ledId]); 
 187:source\bsw/led.c **** //            LED_green_Write(LED__state[ledId]);
 188:source\bsw/led.c **** //            break;
 189:source\bsw/led.c **** //           
 190:source\bsw/led.c **** //        case LED_ALL : 
 191:source\bsw/led.c **** //            for (LED_id_t i = LED_RED; i < LED_ALL; i++)
 192:source\bsw/led.c **** //            {
 193:source\bsw/led.c **** //                LED_Toggle(i);
 194:source\bsw/led.c **** //            }
 195:source\bsw/led.c **** //            break;
 196:source\bsw/led.c **** //        default: return RC_ERROR_BAD_PARAM;
 197:source\bsw/led.c **** //    }
 198:source\bsw/led.c **** //    
 199:source\bsw/led.c **** //    return RC_SUCCESS;
 200:source\bsw/led.c **** //}
 201:source\bsw/led.c **** //
ARM GAS  C:\Users\divya\AppData\Local\Temp\ccCyNhhq.s 			page 5


 202:source\bsw/led.c **** //
 203:source\bsw/led.c **** ///**
 204:source\bsw/led.c **** // * Inverts the parameter
 205:source\bsw/led.c **** // * @param LED_ONOFF_t ledOnOff - Value to be inverted
 206:source\bsw/led.c **** // * @return inverted parameter
 207:source\bsw/led.c **** // */
 208:source\bsw/led.c **** //static inline LED_ONOFF_t LED__toggleValue(LED_ONOFF_t ledOnOff)
 209:source\bsw/led.c **** //{
 210:source\bsw/led.c **** //    if (ledOnOff == LED_ON) 
 211:source\bsw/led.c **** //    {
 212:source\bsw/led.c **** //        return LED_OFF;
 213:source\bsw/led.c **** //    }
 214:source\bsw/led.c **** //    else
 215:source\bsw/led.c **** //    {
 216:source\bsw/led.c **** //        return LED_ON;
 217:source\bsw/led.c **** //    }
 218:source\bsw/led.c **** //}
 219:source\bsw/led.c **** //
 220:source\bsw/led.c **** ///**
 221:source\bsw/led.c **** // * Set the RGB LED
 222:source\bsw/led.c **** // * @param uint16_t red - brightness 
 223:source\bsw/led.c **** // * @param uint16_t yellow - brightness 
 224:source\bsw/led.c **** // * @param uint16_t green - brightness 
 225:source\bsw/led.c **** // * @return RC_SUCCESS if function was executed as exepected, other error code in case of error
 226:source\bsw/led.c **** // */
 227:source\bsw/led.c **** //RC_t LED_RGB_Set(uint8_t red, uint8_t yellow, uint8_t green)
 228:source\bsw/led.c **** //{
 229:source\bsw/led.c **** //    PWM_led_red_WriteCompare(LED__Pulse_Width[red]);
 230:source\bsw/led.c **** //    PWM_led_yellow_WriteCompare(LED__Pulse_Width[yellow]);
 231:source\bsw/led.c **** //    PWM_led_green_WriteCompare(LED__Pulse_Width[green]);
 232:source\bsw/led.c **** // 
 233:source\bsw/led.c **** //    return RC_SUCCESS;
 234:source\bsw/led.c **** //}
 235:source\bsw/led.c **** RC_t LED_Init()
 236:source\bsw/led.c **** {
  28              		.loc 1 236 0
  29              		.cfi_startproc
  30              		@ args = 0, pretend = 0, frame = 0
  31              		@ frame_needed = 0, uses_anonymous_args = 0
  32 0000 08B5     		push	{r3, lr}
  33              		.cfi_def_cfa_offset 8
  34              		.cfi_offset 3, -8
  35              		.cfi_offset 14, -4
 237:source\bsw/led.c ****     //Initializing each values to the zero
 238:source\bsw/led.c ****     LED_STATE[LED_RED] = LED_OFF;
 239:source\bsw/led.c ****     LED_STATE[LED_GREEN] = LED_OFF;
 240:source\bsw/led.c ****     LED_STATE[LED_YELLOW] = LED_OFF;
 241:source\bsw/led.c ****     
 242:source\bsw/led.c ****     PWM_LED_RED_Start();
  36              		.loc 1 242 0
  37 0002 FFF7FEFF 		bl	PWM_LED_RED_Start
  38              	.LVL0:
 243:source\bsw/led.c ****     PWM_LED_GREEN_Start();
  39              		.loc 1 243 0
  40 0006 FFF7FEFF 		bl	PWM_LED_GREEN_Start
  41              	.LVL1:
 244:source\bsw/led.c ****     PWM_LED_YELLOW_Start();
ARM GAS  C:\Users\divya\AppData\Local\Temp\ccCyNhhq.s 			page 6


  42              		.loc 1 244 0
  43 000a FFF7FEFF 		bl	PWM_LED_YELLOW_Start
  44              	.LVL2:
 245:source\bsw/led.c ****     Clock_PWM_Start();
  45              		.loc 1 245 0
  46 000e FFF7FEFF 		bl	Clock_PWM_Start
  47              	.LVL3:
 246:source\bsw/led.c **** }
  48              		.loc 1 246 0
  49 0012 08BD     		pop	{r3, pc}
  50              		.cfi_endproc
  51              	.LFE110:
  52              		.size	LED_Init, .-LED_Init
  53              		.section	.text.LED_Set,"ax",%progbits
  54              		.align	2
  55              		.global	LED_Set
  56              		.thumb
  57              		.thumb_func
  58              		.type	LED_Set, %function
  59              	LED_Set:
  60              	.LFB111:
 247:source\bsw/led.c **** RC_t LED_Set(LEDid_t ledid,LEDOnOff_t ledonoff)
 248:source\bsw/led.c **** {
  61              		.loc 1 248 0
  62              		.cfi_startproc
  63              		@ args = 0, pretend = 0, frame = 0
  64              		@ frame_needed = 0, uses_anonymous_args = 0
  65              	.LVL4:
  66 0000 38B5     		push	{r3, r4, r5, lr}
  67              		.cfi_def_cfa_offset 16
  68              		.cfi_offset 3, -16
  69              		.cfi_offset 4, -12
  70              		.cfi_offset 5, -8
  71              		.cfi_offset 14, -4
  72 0002 0D46     		mov	r5, r1
 249:source\bsw/led.c ****     switch(ledid)
  73              		.loc 1 249 0
  74 0004 0328     		cmp	r0, #3
  75 0006 19D8     		bhi	.L4
  76 0008 DFE800F0 		tbb	[pc, r0]
  77              	.L6:
  78 000c 02       		.byte	(.L5-.L6)/2
  79 000d 06       		.byte	(.L7-.L6)/2
  80 000e 0A       		.byte	(.L8-.L6)/2
  81 000f 15       		.byte	(.L11-.L6)/2
  82              		.p2align 1
  83              	.L5:
 250:source\bsw/led.c ****     {
 251:source\bsw/led.c ****         case LED_RED:
 252:source\bsw/led.c ****         Pin_LED_RED_Write(ledonoff);
  84              		.loc 1 252 0
  85 0010 0846     		mov	r0, r1
  86              	.LVL5:
  87 0012 FFF7FEFF 		bl	Pin_LED_RED_Write
  88              	.LVL6:
 253:source\bsw/led.c ****         LED_STATE[ledid] = ledonoff;
 254:source\bsw/led.c ****         break;
ARM GAS  C:\Users\divya\AppData\Local\Temp\ccCyNhhq.s 			page 7


  89              		.loc 1 254 0
  90 0016 11E0     		b	.L4
  91              	.LVL7:
  92              	.L7:
 255:source\bsw/led.c ****         
 256:source\bsw/led.c ****         case LED_GREEN:
 257:source\bsw/led.c ****         Pin_LED_GREEN_Write(ledonoff);
  93              		.loc 1 257 0
  94 0018 0846     		mov	r0, r1
  95              	.LVL8:
  96 001a FFF7FEFF 		bl	Pin_LED_GREEN_Write
  97              	.LVL9:
 258:source\bsw/led.c ****         LED_STATE[ledid] = ledonoff;
 259:source\bsw/led.c ****         break;
  98              		.loc 1 259 0
  99 001e 0DE0     		b	.L4
 100              	.LVL10:
 101              	.L8:
 260:source\bsw/led.c ****         
 261:source\bsw/led.c ****         case LED_YELLOW:
 262:source\bsw/led.c ****         Pin_LED_YELLOW_Write(ledonoff);
 102              		.loc 1 262 0
 103 0020 0846     		mov	r0, r1
 104              	.LVL11:
 105 0022 FFF7FEFF 		bl	Pin_LED_YELLOW_Write
 106              	.LVL12:
 263:source\bsw/led.c ****         LED_STATE[ledid] = ledonoff;
 264:source\bsw/led.c ****         break;
 107              		.loc 1 264 0
 108 0026 09E0     		b	.L4
 109              	.LVL13:
 110              	.L10:
 111              	.LBB2:
 265:source\bsw/led.c ****         
 266:source\bsw/led.c ****         case LED_ALL:
 267:source\bsw/led.c ****         for(LEDid_t i=0;i<LED_ALL;i++)
 268:source\bsw/led.c ****         {
 269:source\bsw/led.c ****           LED_Set(i,ledonoff);
 112              		.loc 1 269 0 discriminator 3
 113 0028 2946     		mov	r1, r5
 114 002a 2046     		mov	r0, r4
 115 002c FFF7FEFF 		bl	LED_Set
 116              	.LVL14:
 267:source\bsw/led.c ****         {
 117              		.loc 1 267 0 discriminator 3
 118 0030 0134     		adds	r4, r4, #1
 119              	.LVL15:
 120 0032 E4B2     		uxtb	r4, r4
 121              	.LVL16:
 122 0034 00E0     		b	.L9
 123              	.LVL17:
 124              	.L11:
 125              	.LBE2:
 249:source\bsw/led.c ****     {
 126              		.loc 1 249 0
 127 0036 0024     		movs	r4, #0
 128              	.LVL18:
ARM GAS  C:\Users\divya\AppData\Local\Temp\ccCyNhhq.s 			page 8


 129              	.L9:
 130              	.LBB3:
 267:source\bsw/led.c ****         {
 131              		.loc 1 267 0 discriminator 1
 132 0038 022C     		cmp	r4, #2
 133 003a F5D9     		bls	.L10
 134              	.LVL19:
 135              	.L4:
 136              	.LBE3:
 270:source\bsw/led.c ****         }
 271:source\bsw/led.c ****         break;
 272:source\bsw/led.c ****     }
 273:source\bsw/led.c ****     return RC_SUCCESS;
 274:source\bsw/led.c ****         
 275:source\bsw/led.c **** }
 137              		.loc 1 275 0
 138 003c 0020     		movs	r0, #0
 139 003e 38BD     		pop	{r3, r4, r5, pc}
 140              		.cfi_endproc
 141              	.LFE111:
 142              		.size	LED_Set, .-LED_Set
 143              		.section	.text.LED_Toggle,"ax",%progbits
 144              		.align	2
 145              		.global	LED_Toggle
 146              		.thumb
 147              		.thumb_func
 148              		.type	LED_Toggle, %function
 149              	LED_Toggle:
 150              	.LFB112:
 276:source\bsw/led.c **** RC_t LED_Toggle(LEDid_t ledid)
 277:source\bsw/led.c **** {
 151              		.loc 1 277 0
 152              		.cfi_startproc
 153              		@ args = 0, pretend = 0, frame = 0
 154              		@ frame_needed = 0, uses_anonymous_args = 0
 155              	.LVL20:
 156 0000 10B5     		push	{r4, lr}
 157              		.cfi_def_cfa_offset 8
 158              		.cfi_offset 4, -8
 159              		.cfi_offset 14, -4
 278:source\bsw/led.c ****     switch(ledid)
 160              		.loc 1 278 0
 161 0002 0328     		cmp	r0, #3
 162 0004 21D8     		bhi	.L14
 163 0006 DFE800F0 		tbb	[pc, r0]
 164              	.L16:
 165 000a 02       		.byte	(.L15-.L16)/2
 166 000b 09       		.byte	(.L17-.L16)/2
 167 000c 10       		.byte	(.L18-.L16)/2
 168 000d 1D       		.byte	(.L21-.L16)/2
 169              		.p2align 1
 170              	.L15:
 279:source\bsw/led.c ****     {
 280:source\bsw/led.c ****         case LED_RED:
 281:source\bsw/led.c ****         Pin_LED_RED_Write(~Pin_LED_RED_Read());
 171              		.loc 1 281 0
 172 000e FFF7FEFF 		bl	Pin_LED_RED_Read
ARM GAS  C:\Users\divya\AppData\Local\Temp\ccCyNhhq.s 			page 9


 173              	.LVL21:
 174 0012 C043     		mvns	r0, r0
 175 0014 C0B2     		uxtb	r0, r0
 176 0016 FFF7FEFF 		bl	Pin_LED_RED_Write
 177              	.LVL22:
 282:source\bsw/led.c ****         break;
 178              		.loc 1 282 0
 179 001a 16E0     		b	.L14
 180              	.LVL23:
 181              	.L17:
 283:source\bsw/led.c ****         
 284:source\bsw/led.c ****         case LED_GREEN:
 285:source\bsw/led.c ****         Pin_LED_GREEN_Write(~Pin_LED_GREEN_Read());
 182              		.loc 1 285 0
 183 001c FFF7FEFF 		bl	Pin_LED_GREEN_Read
 184              	.LVL24:
 185 0020 C043     		mvns	r0, r0
 186 0022 C0B2     		uxtb	r0, r0
 187 0024 FFF7FEFF 		bl	Pin_LED_GREEN_Write
 188              	.LVL25:
 286:source\bsw/led.c ****         break;
 189              		.loc 1 286 0
 190 0028 0FE0     		b	.L14
 191              	.LVL26:
 192              	.L18:
 287:source\bsw/led.c ****         
 288:source\bsw/led.c ****         case LED_YELLOW:
 289:source\bsw/led.c ****         Pin_LED_YELLOW_Write(~Pin_LED_YELLOW_Read());
 193              		.loc 1 289 0
 194 002a FFF7FEFF 		bl	Pin_LED_YELLOW_Read
 195              	.LVL27:
 196 002e C043     		mvns	r0, r0
 197 0030 C0B2     		uxtb	r0, r0
 198 0032 FFF7FEFF 		bl	Pin_LED_YELLOW_Write
 199              	.LVL28:
 290:source\bsw/led.c ****         break;
 200              		.loc 1 290 0
 201 0036 08E0     		b	.L14
 202              	.LVL29:
 203              	.L20:
 204              	.LBB4:
 291:source\bsw/led.c ****         
 292:source\bsw/led.c ****         case LED_ALL:
 293:source\bsw/led.c ****         for(LEDid_t i =0;i<LED_ALL;i++)
 294:source\bsw/led.c ****         {
 295:source\bsw/led.c ****             LED_Toggle(i);
 205              		.loc 1 295 0 discriminator 3
 206 0038 2046     		mov	r0, r4
 207 003a FFF7FEFF 		bl	LED_Toggle
 208              	.LVL30:
 293:source\bsw/led.c ****         {
 209              		.loc 1 293 0 discriminator 3
 210 003e 0134     		adds	r4, r4, #1
 211              	.LVL31:
 212 0040 E4B2     		uxtb	r4, r4
 213              	.LVL32:
 214 0042 00E0     		b	.L19
ARM GAS  C:\Users\divya\AppData\Local\Temp\ccCyNhhq.s 			page 10


 215              	.LVL33:
 216              	.L21:
 217              	.LBE4:
 278:source\bsw/led.c ****     {
 218              		.loc 1 278 0
 219 0044 0024     		movs	r4, #0
 220              	.LVL34:
 221              	.L19:
 222              	.LBB5:
 293:source\bsw/led.c ****         {
 223              		.loc 1 293 0 discriminator 1
 224 0046 022C     		cmp	r4, #2
 225 0048 F6D9     		bls	.L20
 226              	.LVL35:
 227              	.L14:
 228              	.LBE5:
 296:source\bsw/led.c ****         }
 297:source\bsw/led.c ****         break;
 298:source\bsw/led.c ****     }
 299:source\bsw/led.c ****     return RC_SUCCESS;
 300:source\bsw/led.c **** }
 229              		.loc 1 300 0
 230 004a 0020     		movs	r0, #0
 231 004c 10BD     		pop	{r4, pc}
 232              		.cfi_endproc
 233              	.LFE112:
 234              		.size	LED_Toggle, .-LED_Toggle
 235 004e 00BF     		.text
 236              	.Letext0:
 237              		.file 2 "c:\\program files (x86)\\cypress\\psoc creator\\4.4\\psoc creator\\import\\gnu\\arm\\5.4.
 238              		.file 3 "c:\\program files (x86)\\cypress\\psoc creator\\4.4\\psoc creator\\import\\gnu\\arm\\5.4.
 239              		.file 4 "Generated_Source\\PSoC5/ErikaOS_1_common_ee_types.inc"
 240              		.file 5 "Generated_Source\\PSoC5/ErikaOS_1_cortex_mx_ee_cpu.inc"
 241              		.file 6 "source\\bsw\\global.h"
 242              		.file 7 "source\\bsw\\led.h"
 243              		.file 8 "Generated_Source\\PSoC5/ErikaOS_1_ee_oo_intfunc.inc"
 244              		.file 9 "Generated_Source\\PSoC5/ErikaOS_1_cortex_mx_ee_context.inc"
 245              		.file 10 "Generated_Source\\PSoC5/ErikaOS_1_common_ee_primitives.inc"
 246              		.file 11 "Generated_Source\\PSoC5/core_cm3.h"
 247              		.file 12 "Generated_Source\\PSoC5/PWM_LED_RED.h"
 248              		.file 13 "Generated_Source\\PSoC5/PWM_LED_GREEN.h"
 249              		.file 14 "Generated_Source\\PSoC5/PWM_LED_YELLOW.h"
 250              		.file 15 "Generated_Source\\PSoC5/Clock_PWM.h"
 251              		.file 16 "Generated_Source\\PSoC5/Pin_LED_RED.h"
 252              		.file 17 "Generated_Source\\PSoC5/Pin_LED_GREEN.h"
 253              		.file 18 "Generated_Source\\PSoC5/Pin_LED_YELLOW.h"