ARM GAS  C:\Users\divya\AppData\Local\Temp\ccsjUMwM.s 			page 1


   1              		.syntax unified
   2              		.cpu cortex-m3
   3              		.fpu softvfp
   4              		.eabi_attribute 20, 1
   5              		.eabi_attribute 21, 1
   6              		.eabi_attribute 23, 3
   7              		.eabi_attribute 24, 1
   8              		.eabi_attribute 25, 1
   9              		.eabi_attribute 26, 1
  10              		.eabi_attribute 30, 1
  11              		.eabi_attribute 34, 1
  12              		.eabi_attribute 18, 4
  13              		.thumb
  14              		.syntax unified
  15              		.file	"seven.c"
  16              		.text
  17              	.Ltext0:
  18              		.cfi_sections	.debug_frame
  19              		.section	.text.SEVEN_SEGWRITE,"ax",%progbits
  20              		.align	2
  21              		.global	SEVEN_SEGWRITE
  22              		.thumb
  23              		.thumb_func
  24              		.type	SEVEN_SEGWRITE, %function
  25              	SEVEN_SEGWRITE:
  26              	.LFB111:
  27              		.file 1 "source\\bsw\\seven.c"
   1:source\bsw/seven.c **** /**
   2:source\bsw/seven.c **** * \file seven.c
   3:source\bsw/seven.c **** * \author P. Fromm
   4:source\bsw/seven.c **** * \date 28.8.17
   5:source\bsw/seven.c **** *
   6:source\bsw/seven.c **** * \brief Driver for 7 segment displays
   7:source\bsw/seven.c **** *
   8:source\bsw/seven.c **** * \copyright Copyright ©2016
   9:source\bsw/seven.c **** * Department of electrical engineering and information technology, Hochschule Darmstadt - Universit
  10:source\bsw/seven.c **** * Permission to use, copy, modify, and distribute this software and its documentation for education
  11:source\bsw/seven.c **** * (unless permitted by h_da) and official h_da projects, is hereby granted for enrolled students of
  12:source\bsw/seven.c **** * this paragraph and the following paragraph appear in all copies, modifications, and distributions
  13:source\bsw/seven.c **** * Contact Prof.Dr.-Ing. Peter Fromm, peter.fromm@h-da.de, Birkenweg 8 64295 Darmstadt - GERMANY for
  14:source\bsw/seven.c **** *
  15:source\bsw/seven.c **** * \warning This software is a PROTOTYPE version and is not designed or intended for use in producti
  16:source\bsw/seven.c **** * The user represents and warrants that it will NOT use or redistribute the Software for such purpo
  17:source\bsw/seven.c **** * This prototype is for research purposes only. This software is provided "AS IS," without a warran
  18:source\bsw/seven.c **** */
  19:source\bsw/seven.c **** 
  20:source\bsw/seven.c **** /*****************************************************************************/
  21:source\bsw/seven.c **** /* Include files                                                             */
  22:source\bsw/seven.c **** /*****************************************************************************/
  23:source\bsw/seven.c **** #include "project.h"
  24:source\bsw/seven.c **** #include "seven.h"
  25:source\bsw/seven.c **** #include "string.h"
  26:source\bsw/seven.c **** 
  27:source\bsw/seven.c **** 
  28:source\bsw/seven.c **** 
  29:source\bsw/seven.c **** /*****************************************************************************/
  30:source\bsw/seven.c **** /* Local pre-processor symbols/macros ('#define')                            */
ARM GAS  C:\Users\divya\AppData\Local\Temp\ccsjUMwM.s 			page 2


  31:source\bsw/seven.c **** /*****************************************************************************/
  32:source\bsw/seven.c **** 
  33:source\bsw/seven.c **** #define SEVEN__A  0b00000001
  34:source\bsw/seven.c **** #define SEVEN__B  0b00000010
  35:source\bsw/seven.c **** #define SEVEN__C  0b00000100
  36:source\bsw/seven.c **** #define SEVEN__D  0b00001000
  37:source\bsw/seven.c **** #define SEVEN__E  0b00010000
  38:source\bsw/seven.c **** #define SEVEN__F  0b00100000
  39:source\bsw/seven.c **** #define SEVEN__G  0b01000000
  40:source\bsw/seven.c **** #define SEVEN__DP 0b10000000
  41:source\bsw/seven.c **** 
  42:source\bsw/seven.c **** 
  43:source\bsw/seven.c **** /*****************************************************************************/
  44:source\bsw/seven.c **** /* Global variable definitions (declared in header file with 'extern')       */
  45:source\bsw/seven.c **** /*****************************************************************************/
  46:source\bsw/seven.c **** 
  47:source\bsw/seven.c **** /*****************************************************************************/
  48:source\bsw/seven.c **** /* Local type definitions ('typedef')                                        */
  49:source\bsw/seven.c **** /*****************************************************************************/
  50:source\bsw/seven.c **** 
  51:source\bsw/seven.c **** /*****************************************************************************/
  52:source\bsw/seven.c **** /* Local variable definitions ('static')                                     */
  53:source\bsw/seven.c **** /*****************************************************************************/
  54:source\bsw/seven.c **** char buffer[32];
  55:source\bsw/seven.c **** //    ABCDEFG
  56:source\bsw/seven.c **** const static uint8_t SEVEN_DecimalValues[] = 
  57:source\bsw/seven.c **** {
  58:source\bsw/seven.c ****     63,     //0
  59:source\bsw/seven.c ****      6,     //1
  60:source\bsw/seven.c ****     91,     //2
  61:source\bsw/seven.c ****     79,     //3
  62:source\bsw/seven.c ****     102,     //4
  63:source\bsw/seven.c ****     109,     //5
  64:source\bsw/seven.c ****     125,     //6
  65:source\bsw/seven.c ****     7,       //7
  66:source\bsw/seven.c ****     127,     //8
  67:source\bsw/seven.c ****     103,     //9
  68:source\bsw/seven.c ****     128      //decimal point
  69:source\bsw/seven.c **** };
  70:source\bsw/seven.c ****     
  71:source\bsw/seven.c **** //We need to store the last latch value per display
  72:source\bsw/seven.c **** //-1 means empty
  73:source\bsw/seven.c **** static sint8_t SEVEN__latch_value[2] = {-1,-1};
  74:source\bsw/seven.c **** static uint8_t SEVEN__latch_pattern[2] = {0,0};
  75:source\bsw/seven.c **** 
  76:source\bsw/seven.c **** /*****************************************************************************/
  77:source\bsw/seven.c **** /* Local function prototypes ('static')                                      */
  78:source\bsw/seven.c **** /*****************************************************************************/
  79:source\bsw/seven.c **** 
  80:source\bsw/seven.c **** 
  81:source\bsw/seven.c **** /*****************************************************************************/
  82:source\bsw/seven.c **** /* Function implementation - global ('extern') and local ('static')          */
  83:source\bsw/seven.c **** /*****************************************************************************/
  84:source\bsw/seven.c **** 
  85:source\bsw/seven.c **** 
  86:source\bsw/seven.c **** 
  87:source\bsw/seven.c **** /**
ARM GAS  C:\Users\divya\AppData\Local\Temp\ccsjUMwM.s 			page 3


  88:source\bsw/seven.c ****  * Initilasation of the seven segment display
  89:source\bsw/seven.c ****  * @return RC_SUCCESS if function was executed correctly, other value in case of error
  90:source\bsw/seven.c ****  */
  91:source\bsw/seven.c **** RC_t SEVEN_Init()
  92:source\bsw/seven.c **** {
  93:source\bsw/seven.c ****     
  94:source\bsw/seven.c ****     SEVEN_SEGClear(SEVEN_DSIPLAY_0);
  95:source\bsw/seven.c ****     SEVEN_SEGClear(SEVEN_DISPLAY_1);
  96:source\bsw/seven.c ****     
  97:source\bsw/seven.c ****     return RC_SUCCESS;
  98:source\bsw/seven.c **** }
  99:source\bsw/seven.c **** 
 100:source\bsw/seven.c **** 
 101:source\bsw/seven.c **** /**
 102:source\bsw/seven.c ****  * Sets value for one display
 103:source\bsw/seven.c ****  * @param SEVEN_id_t sevenId - identifier for the segment to be set
 104:source\bsw/seven.c ****  * @param uint8_t value - value to be set, valid range 0...15
 105:source\bsw/seven.c ****  * @return RC_SUCCESS if function was executed correctly, other value in case of error
 106:source\bsw/seven.c ****  */
 107:source\bsw/seven.c **** RC_t SEVEN_SEGWRITE(SEVEN_id_t sevenId, uint8_t value)
 108:source\bsw/seven.c **** {
  28              		.loc 1 108 0
  29              		.cfi_startproc
  30              		@ args = 0, pretend = 0, frame = 0
  31              		@ frame_needed = 0, uses_anonymous_args = 0
  32              	.LVL0:
 109:source\bsw/seven.c ****     if (value > 0x0F)
  33              		.loc 1 109 0
  34 0000 0F29     		cmp	r1, #15
  35 0002 0ED8     		bhi	.L3
 108:source\bsw/seven.c ****     if (value > 0x0F)
  36              		.loc 1 108 0
  37 0004 38B5     		push	{r3, r4, r5, lr}
  38              		.cfi_def_cfa_offset 16
  39              		.cfi_offset 3, -16
  40              		.cfi_offset 4, -12
  41              		.cfi_offset 5, -8
  42              		.cfi_offset 14, -4
  43 0006 0C46     		mov	r4, r1
  44 0008 0546     		mov	r5, r0
 110:source\bsw/seven.c ****     {
 111:source\bsw/seven.c ****         return RC_ERROR_BAD_PARAM;
 112:source\bsw/seven.c ****     }
 113:source\bsw/seven.c ****     
 114:source\bsw/seven.c ****     //Set the selection bit for the display
 115:source\bsw/seven.c ****     Pin_SEVENSEL_Write((uint8_t)sevenId);
  45              		.loc 1 115 0
  46 000a FFF7FEFF 		bl	Pin_SEVENSEL_Write
  47              	.LVL1:
 116:source\bsw/seven.c ****     
 117:source\bsw/seven.c ****     //Set the bitpattern
 118:source\bsw/seven.c ****     //As we do not have a single port, we have to do it bit by bit
 119:source\bsw/seven.c ****     //Store the current pattern in the software latch (needed for the DP function)
 120:source\bsw/seven.c ****     
 121:source\bsw/seven.c **** 
 122:source\bsw/seven.c ****     
 123:source\bsw/seven.c ****     uint8_t Display = SEVEN_DecimalValues[value];
ARM GAS  C:\Users\divya\AppData\Local\Temp\ccsjUMwM.s 			page 4


  48              		.loc 1 123 0
  49 000e 064B     		ldr	r3, .L6
  50 0010 185D     		ldrb	r0, [r3, r4]	@ zero_extendqisi2
  51              	.LVL2:
 124:source\bsw/seven.c ****     
 125:source\bsw/seven.c ****     SEVEN__latch_value[(uint8_t)sevenId] = value;
  52              		.loc 1 125 0
  53 0012 064B     		ldr	r3, .L6+4
  54 0014 5C55     		strb	r4, [r3, r5]
 126:source\bsw/seven.c ****     SEVEN__latch_pattern[(uint8_t)sevenId] = Display;
  55              		.loc 1 126 0
  56 0016 064B     		ldr	r3, .L6+8
  57 0018 5855     		strb	r0, [r3, r5]
 127:source\bsw/seven.c ****     
 128:source\bsw/seven.c ****     SEVENSEG_REG_Write(Display);
  58              		.loc 1 128 0
  59 001a FFF7FEFF 		bl	SEVENSEG_REG_Write
  60              	.LVL3:
 129:source\bsw/seven.c ****     return RC_SUCCESS;
  61              		.loc 1 129 0
  62 001e 0020     		movs	r0, #0
  63 0020 38BD     		pop	{r3, r4, r5, pc}
  64              	.LVL4:
  65              	.L3:
  66              		.cfi_def_cfa_offset 0
  67              		.cfi_restore 3
  68              		.cfi_restore 4
  69              		.cfi_restore 5
  70              		.cfi_restore 14
 111:source\bsw/seven.c ****     }
  71              		.loc 1 111 0
  72 0022 6FF01300 		mvn	r0, #19
  73              	.LVL5:
  74 0026 7047     		bx	lr
  75              	.L7:
  76              		.align	2
  77              	.L6:
  78 0028 00000000 		.word	.LANCHOR0
  79 002c 00000000 		.word	.LANCHOR1
  80 0030 00000000 		.word	.LANCHOR2
  81              		.cfi_endproc
  82              	.LFE111:
  83              		.size	SEVEN_SEGWRITE, .-SEVEN_SEGWRITE
  84              		.section	.text.SEVEN_SEGREAD,"ax",%progbits
  85              		.align	2
  86              		.global	SEVEN_SEGREAD
  87              		.thumb
  88              		.thumb_func
  89              		.type	SEVEN_SEGREAD, %function
  90              	SEVEN_SEGREAD:
  91              	.LFB112:
 130:source\bsw/seven.c ****     
 131:source\bsw/seven.c **** }
 132:source\bsw/seven.c **** 
 133:source\bsw/seven.c **** /**
 134:source\bsw/seven.c ****  * Get value for one display
 135:source\bsw/seven.c ****  * @param SEVEN_id_t sevenId - identifier for the segment to be set
ARM GAS  C:\Users\divya\AppData\Local\Temp\ccsjUMwM.s 			page 5


 136:source\bsw/seven.c ****  * @param uint8_t value - current value, valid range 0...15
 137:source\bsw/seven.c ****  * @return RC_SUCCESS if function was executed correctly, other value in case of error
 138:source\bsw/seven.c **** */
 139:source\bsw/seven.c **** 
 140:source\bsw/seven.c **** RC_t SEVEN_SEGREAD(SEVEN_id_t sevenId, sint8_t* value)
 141:source\bsw/seven.c **** {
  92              		.loc 1 141 0
  93              		.cfi_startproc
  94              		@ args = 0, pretend = 0, frame = 0
  95              		@ frame_needed = 0, uses_anonymous_args = 0
  96              	.LVL6:
  97 0000 10B5     		push	{r4, lr}
  98              		.cfi_def_cfa_offset 8
  99              		.cfi_offset 4, -8
 100              		.cfi_offset 14, -4
 142:source\bsw/seven.c ****     *value = SEVEN__latch_pattern[(uint8_t)sevenId];
 101              		.loc 1 142 0
 102 0002 064B     		ldr	r3, .L10
 103 0004 1A56     		ldrsb	r2, [r3, r0]
 104 0006 0A70     		strb	r2, [r1]
 143:source\bsw/seven.c ****     sprintf(buffer,"Dsiplay Values is %u\n",*value);
 105              		.loc 1 143 0
 106 0008 054C     		ldr	r4, .L10+4
 107 000a 0649     		ldr	r1, .L10+8
 108              	.LVL7:
 109 000c 2046     		mov	r0, r4
 110              	.LVL8:
 111 000e FFF7FEFF 		bl	sprintf
 112              	.LVL9:
 144:source\bsw/seven.c ****     UART_1_PutString(buffer);
 113              		.loc 1 144 0
 114 0012 2046     		mov	r0, r4
 115 0014 FFF7FEFF 		bl	UART_1_PutString
 116              	.LVL10:
 145:source\bsw/seven.c ****     return RC_SUCCESS;
 146:source\bsw/seven.c **** }
 117              		.loc 1 146 0
 118 0018 0020     		movs	r0, #0
 119 001a 10BD     		pop	{r4, pc}
 120              	.L11:
 121              		.align	2
 122              	.L10:
 123 001c 00000000 		.word	.LANCHOR2
 124 0020 00000000 		.word	buffer
 125 0024 00000000 		.word	.LC0
 126              		.cfi_endproc
 127              	.LFE112:
 128              		.size	SEVEN_SEGREAD, .-SEVEN_SEGREAD
 129              		.section	.text.SEVEN_SetHex,"ax",%progbits
 130              		.align	2
 131              		.global	SEVEN_SetHex
 132              		.thumb
 133              		.thumb_func
 134              		.type	SEVEN_SetHex, %function
 135              	SEVEN_SetHex:
 136              	.LFB113:
 147:source\bsw/seven.c **** 
ARM GAS  C:\Users\divya\AppData\Local\Temp\ccsjUMwM.s 			page 6


 148:source\bsw/seven.c **** /*
 149:source\bsw/seven.c **** RC_t SEVENSEG_READ()
 150:source\bsw/seven.c **** {
 151:source\bsw/seven.c ****     uint16_t Display1Val;
 152:source\bsw/seven.c ****     uint16_t Display2Val;
 153:source\bsw/seven.c ****     
 154:source\bsw/seven.c ****     //Selecting Dsipaly to be read first and reading the control register
 155:source\bsw/seven.c ****     Pin_SEVENSEL_Write(SEVEN_DSIPLAY_0);
 156:source\bsw/seven.c ****    
 157:source\bsw/seven.c ****         Display1Val = SEVENSEG_REG_Read();
 158:source\bsw/seven.c ****         sprintf(buffer,"Dsiplay 1 value is %u\n",Display1Val);
 159:source\bsw/seven.c ****         UART_1_PutString(buffer);
 160:source\bsw/seven.c ****     
 161:source\bsw/seven.c ****          Pin_SEVENSEL_Write(SEVEN_DISPLAY_1);
 162:source\bsw/seven.c ****         Display2Val = SEVENSEG_REG_Read();
 163:source\bsw/seven.c ****         sprintf(buffer,"Dsiplay 2 value is %u\n",Display2Val);
 164:source\bsw/seven.c ****         UART_1_PutString(buffer);
 165:source\bsw/seven.c ****     
 166:source\bsw/seven.c **** }
 167:source\bsw/seven.c **** */
 168:source\bsw/seven.c **** 
 169:source\bsw/seven.c **** 
 170:source\bsw/seven.c **** /**
 171:source\bsw/seven.c ****  * Sets both displays
 172:source\bsw/seven.c ****  * @param uint8_t value - value to be set, valid range 0...255
 173:source\bsw/seven.c ****  * @return RC_SUCCESS if function was executed correctly, other value in case of error
 174:source\bsw/seven.c ****  */
 175:source\bsw/seven.c **** RC_t SEVEN_SetHex(uint8_t value)
 176:source\bsw/seven.c **** {
 137              		.loc 1 176 0
 138              		.cfi_startproc
 139              		@ args = 0, pretend = 0, frame = 0
 140              		@ frame_needed = 0, uses_anonymous_args = 0
 141              	.LVL11:
 142 0000 10B5     		push	{r4, lr}
 143              		.cfi_def_cfa_offset 8
 144              		.cfi_offset 4, -8
 145              		.cfi_offset 14, -4
 146 0002 0446     		mov	r4, r0
 177:source\bsw/seven.c ****     SEVEN_SEGWRITE(SEVEN_DISPLAY_1, value / 16);
 147              		.loc 1 177 0
 148 0004 0109     		lsrs	r1, r0, #4
 149 0006 0120     		movs	r0, #1
 150              	.LVL12:
 151 0008 FFF7FEFF 		bl	SEVEN_SEGWRITE
 152              	.LVL13:
 178:source\bsw/seven.c ****     SEVEN_SEGWRITE(SEVEN_DSIPLAY_0, value % 16);
 153              		.loc 1 178 0
 154 000c 04F00F01 		and	r1, r4, #15
 155 0010 0020     		movs	r0, #0
 156 0012 FFF7FEFF 		bl	SEVEN_SEGWRITE
 157              	.LVL14:
 179:source\bsw/seven.c ****     
 180:source\bsw/seven.c ****     return RC_SUCCESS;
 181:source\bsw/seven.c **** }
 158              		.loc 1 181 0
 159 0016 0020     		movs	r0, #0
ARM GAS  C:\Users\divya\AppData\Local\Temp\ccsjUMwM.s 			page 7


 160 0018 10BD     		pop	{r4, pc}
 161              		.cfi_endproc
 162              	.LFE113:
 163              		.size	SEVEN_SetHex, .-SEVEN_SetHex
 164 001a 00BF     		.section	.text.SEVEN_SetDP,"ax",%progbits
 165              		.align	2
 166              		.global	SEVEN_SetDP
 167              		.thumb
 168              		.thumb_func
 169              		.type	SEVEN_SetDP, %function
 170              	SEVEN_SetDP:
 171              	.LFB114:
 182:source\bsw/seven.c **** 
 183:source\bsw/seven.c **** /**
 184:source\bsw/seven.c ****  * Sets decimal point for one display
 185:source\bsw/seven.c ****  * @param SEVEN_id_t sevenId - identifier for the segment to be set
 186:source\bsw/seven.c ****  * @param uint8_t value - value to be set, valid range 0 (OFF)...1(ON)
 187:source\bsw/seven.c ****  * @return RC_SUCCESS if function was executed correctly, other value in case of error
 188:source\bsw/seven.c ****  */
 189:source\bsw/seven.c **** RC_t SEVEN_SetDP(SEVEN_id_t sevenId, uint8_t value)
 190:source\bsw/seven.c **** {
 172              		.loc 1 190 0
 173              		.cfi_startproc
 174              		@ args = 0, pretend = 0, frame = 0
 175              		@ frame_needed = 0, uses_anonymous_args = 0
 176              	.LVL15:
 191:source\bsw/seven.c ****     
 192:source\bsw/seven.c ****     if (value > 1)
 177              		.loc 1 192 0
 178 0000 0129     		cmp	r1, #1
 179 0002 14D8     		bhi	.L17
 190:source\bsw/seven.c ****     
 180              		.loc 1 190 0
 181 0004 38B5     		push	{r3, r4, r5, lr}
 182              		.cfi_def_cfa_offset 16
 183              		.cfi_offset 3, -16
 184              		.cfi_offset 4, -12
 185              		.cfi_offset 5, -8
 186              		.cfi_offset 14, -4
 187              	.LVL16:
 193:source\bsw/seven.c ****     {
 194:source\bsw/seven.c ****         return RC_ERROR_BAD_PARAM;
 195:source\bsw/seven.c ****     }
 196:source\bsw/seven.c ****     
 197:source\bsw/seven.c ****     //Restore the last display pattern
 198:source\bsw/seven.c ****     uint8_t pattern = 0;
 199:source\bsw/seven.c ****     if (SEVEN__latch_value[(uint8_t)sevenId] != -1)
 188              		.loc 1 199 0
 189 0006 0B4B     		ldr	r3, .L21
 190 0008 1B56     		ldrsb	r3, [r3, r0]
 191 000a B3F1FF3F 		cmp	r3, #-1
 192 000e 02D0     		beq	.L18
 200:source\bsw/seven.c ****     {
 201:source\bsw/seven.c ****         pattern = SEVEN__latch_pattern[(uint8_t)sevenId];
 193              		.loc 1 201 0
 194 0010 094B     		ldr	r3, .L21+4
 195 0012 1D5C     		ldrb	r5, [r3, r0]	@ zero_extendqisi2
ARM GAS  C:\Users\divya\AppData\Local\Temp\ccsjUMwM.s 			page 8


 196              	.LVL17:
 197 0014 00E0     		b	.L16
 198              	.LVL18:
 199              	.L18:
 198:source\bsw/seven.c ****     if (SEVEN__latch_value[(uint8_t)sevenId] != -1)
 200              		.loc 1 198 0
 201 0016 0025     		movs	r5, #0
 202              	.LVL19:
 203              	.L16:
 204 0018 0C46     		mov	r4, r1
 205              	.LVL20:
 202:source\bsw/seven.c ****     }
 203:source\bsw/seven.c ****     
 204:source\bsw/seven.c ****     //Set the selection bit for the display
 205:source\bsw/seven.c ****     Pin_SEVENSEL_Write((uint8_t)sevenId);
 206              		.loc 1 205 0
 207 001a FFF7FEFF 		bl	Pin_SEVENSEL_Write
 208              	.LVL21:
 206:source\bsw/seven.c ****     
 207:source\bsw/seven.c ****     //Set the port to the pattern currently active
 208:source\bsw/seven.c ****     SEVENSEG_REG_Write(pattern);
 209              		.loc 1 208 0
 210 001e 2846     		mov	r0, r5
 211 0020 FFF7FEFF 		bl	SEVENSEG_REG_Write
 212              	.LVL22:
 209:source\bsw/seven.c ****     
 210:source\bsw/seven.c ****     //Set the decimal point
 211:source\bsw/seven.c ****     SEVSEG_DP_Write(value);
 213              		.loc 1 211 0
 214 0024 2046     		mov	r0, r4
 215 0026 FFF7FEFF 		bl	SEVSEG_DP_Write
 216              	.LVL23:
 212:source\bsw/seven.c **** 
 213:source\bsw/seven.c ****     return RC_SUCCESS;
 217              		.loc 1 213 0
 218 002a 0020     		movs	r0, #0
 219 002c 38BD     		pop	{r3, r4, r5, pc}
 220              	.LVL24:
 221              	.L17:
 222              		.cfi_def_cfa_offset 0
 223              		.cfi_restore 3
 224              		.cfi_restore 4
 225              		.cfi_restore 5
 226              		.cfi_restore 14
 194:source\bsw/seven.c ****     }
 227              		.loc 1 194 0
 228 002e 6FF01300 		mvn	r0, #19
 229              	.LVL25:
 230 0032 7047     		bx	lr
 231              	.L22:
 232              		.align	2
 233              	.L21:
 234 0034 00000000 		.word	.LANCHOR1
 235 0038 00000000 		.word	.LANCHOR2
 236              		.cfi_endproc
 237              	.LFE114:
 238              		.size	SEVEN_SetDP, .-SEVEN_SetDP
ARM GAS  C:\Users\divya\AppData\Local\Temp\ccsjUMwM.s 			page 9


 239              		.section	.text.SEVEN_SEGClear,"ax",%progbits
 240              		.align	2
 241              		.global	SEVEN_SEGClear
 242              		.thumb
 243              		.thumb_func
 244              		.type	SEVEN_SEGClear, %function
 245              	SEVEN_SEGClear:
 246              	.LFB115:
 214:source\bsw/seven.c **** }
 215:source\bsw/seven.c **** 
 216:source\bsw/seven.c **** /**
 217:source\bsw/seven.c ****  * Clears one display
 218:source\bsw/seven.c ****  * @param SEVEN_id_t sevenId - identifier for the segment to be set
 219:source\bsw/seven.c ****  * @return RC_SUCCESS if function was executed correctly, other value in case of error
 220:source\bsw/seven.c ****  */
 221:source\bsw/seven.c **** RC_t SEVEN_SEGClear(SEVEN_id_t sevenId)
 222:source\bsw/seven.c **** {
 247              		.loc 1 222 0
 248              		.cfi_startproc
 249              		@ args = 0, pretend = 0, frame = 0
 250              		@ frame_needed = 0, uses_anonymous_args = 0
 251              	.LVL26:
 252 0000 08B5     		push	{r3, lr}
 253              		.cfi_def_cfa_offset 8
 254              		.cfi_offset 3, -8
 255              		.cfi_offset 14, -4
 223:source\bsw/seven.c ****     
 224:source\bsw/seven.c ****     
 225:source\bsw/seven.c ****     //Set the selection bit for the display
 226:source\bsw/seven.c ****     Pin_SEVENSEL_Write(sevenId);
 256              		.loc 1 226 0
 257 0002 FFF7FEFF 		bl	Pin_SEVENSEL_Write
 258              	.LVL27:
 227:source\bsw/seven.c ****     
 228:source\bsw/seven.c ****     //Clear every bit
 229:source\bsw/seven.c ****     SEVENSEG_REG_Write(0);
 259              		.loc 1 229 0
 260 0006 0020     		movs	r0, #0
 261 0008 FFF7FEFF 		bl	SEVENSEG_REG_Write
 262              	.LVL28:
 230:source\bsw/seven.c ****     
 231:source\bsw/seven.c ****     return RC_SUCCESS;
 232:source\bsw/seven.c **** }
 263              		.loc 1 232 0
 264 000c 0020     		movs	r0, #0
 265 000e 08BD     		pop	{r3, pc}
 266              		.cfi_endproc
 267              	.LFE115:
 268              		.size	SEVEN_SEGClear, .-SEVEN_SEGClear
 269              		.section	.text.SEVEN_Init,"ax",%progbits
 270              		.align	2
 271              		.global	SEVEN_Init
 272              		.thumb
 273              		.thumb_func
 274              		.type	SEVEN_Init, %function
 275              	SEVEN_Init:
 276              	.LFB110:
ARM GAS  C:\Users\divya\AppData\Local\Temp\ccsjUMwM.s 			page 10


  92:source\bsw/seven.c ****     
 277              		.loc 1 92 0
 278              		.cfi_startproc
 279              		@ args = 0, pretend = 0, frame = 0
 280              		@ frame_needed = 0, uses_anonymous_args = 0
 281 0000 08B5     		push	{r3, lr}
 282              		.cfi_def_cfa_offset 8
 283              		.cfi_offset 3, -8
 284              		.cfi_offset 14, -4
  94:source\bsw/seven.c ****     SEVEN_SEGClear(SEVEN_DISPLAY_1);
 285              		.loc 1 94 0
 286 0002 0020     		movs	r0, #0
 287 0004 FFF7FEFF 		bl	SEVEN_SEGClear
 288              	.LVL29:
  95:source\bsw/seven.c ****     
 289              		.loc 1 95 0
 290 0008 0120     		movs	r0, #1
 291 000a FFF7FEFF 		bl	SEVEN_SEGClear
 292              	.LVL30:
  98:source\bsw/seven.c **** 
 293              		.loc 1 98 0
 294 000e 0020     		movs	r0, #0
 295 0010 08BD     		pop	{r3, pc}
 296              		.cfi_endproc
 297              	.LFE110:
 298              		.size	SEVEN_Init, .-SEVEN_Init
 299              		.comm	buffer,32,4
 300 0012 00BF     		.section	.rodata
 301              		.align	2
 302              		.set	.LANCHOR0,. + 0
 303              		.type	SEVEN_DecimalValues, %object
 304              		.size	SEVEN_DecimalValues, 11
 305              	SEVEN_DecimalValues:
 306 0000 3F       		.byte	63
 307 0001 06       		.byte	6
 308 0002 5B       		.byte	91
 309 0003 4F       		.byte	79
 310 0004 66       		.byte	102
 311 0005 6D       		.byte	109
 312 0006 7D       		.byte	125
 313 0007 07       		.byte	7
 314 0008 7F       		.byte	127
 315 0009 67       		.byte	103
 316 000a 80       		.byte	-128
 317              		.data
 318              		.align	2
 319              		.set	.LANCHOR1,. + 0
 320              		.type	SEVEN__latch_value, %object
 321              		.size	SEVEN__latch_value, 2
 322              	SEVEN__latch_value:
 323 0000 FF       		.byte	-1
 324 0001 FF       		.byte	-1
 325              		.section	.rodata.str1.4,"aMS",%progbits,1
 326              		.align	2
 327              	.LC0:
 328 0000 44736970 		.ascii	"Dsiplay Values is %u\012\000"
 328      6C617920 
ARM GAS  C:\Users\divya\AppData\Local\Temp\ccsjUMwM.s 			page 11


 328      56616C75 
 328      65732069 
 328      73202575 
 329              		.bss
 330              		.align	2
 331              		.set	.LANCHOR2,. + 0
 332              		.type	SEVEN__latch_pattern, %object
 333              		.size	SEVEN__latch_pattern, 2
 334              	SEVEN__latch_pattern:
 335 0000 0000     		.space	2
 336              		.text
 337              	.Letext0:
 338              		.file 2 "c:\\program files (x86)\\cypress\\psoc creator\\4.4\\psoc creator\\import\\gnu\\arm\\5.4.
 339              		.file 3 "c:\\program files (x86)\\cypress\\psoc creator\\4.4\\psoc creator\\import\\gnu\\arm\\5.4.
 340              		.file 4 "Generated_Source\\PSoC5/ErikaOS_1_common_ee_types.inc"
 341              		.file 5 "Generated_Source\\PSoC5/ErikaOS_1_cortex_mx_ee_cpu.inc"
 342              		.file 6 "source\\bsw\\global.h"
 343              		.file 7 "source\\bsw\\seven.h"
 344              		.file 8 "Generated_Source\\PSoC5/ErikaOS_1_ee_oo_intfunc.inc"
 345              		.file 9 "Generated_Source\\PSoC5/ErikaOS_1_cortex_mx_ee_context.inc"
 346              		.file 10 "Generated_Source\\PSoC5/ErikaOS_1_common_ee_primitives.inc"
 347              		.file 11 "Generated_Source\\PSoC5/core_cm3.h"
 348              		.file 12 "Generated_Source\\PSoC5/Pin_SEVENSEL.h"
 349              		.file 13 "Generated_Source\\PSoC5/SEVENSEG_REG.h"
 350              		.file 14 "<built-in>"
 351              		.file 15 "Generated_Source\\PSoC5/UART_1.h"
 352              		.file 16 "Generated_Source\\PSoC5/SEVSEG_DP.h"